; Function Attrs: mustprogress nofree norecurse nosync nounwind willreturn memory(argmem: write) uwtable
define void @png_set_error_fn(ptr noalias noundef writeonly captures(address_is_null) %0, ptr noundef %1, ptr noundef %2, ptr noundef %3) local_unnamed_addr #15 {
  %5 = icmp eq ptr %0, null
  br i1 %5, label %10, label %6

6:                                                ; preds = %4
  %7 = getelementptr inbounds nuw i8, ptr %0, i64 240
  store ptr %1, ptr %7, align 8, !tbaa !76
  %8 = getelementptr inbounds nuw i8, ptr %0, i64 224
  store ptr %2, ptr %8, align 8, !tbaa !3
  %9 = getelementptr inbounds nuw i8, ptr %0, i64 232
  store ptr %3, ptr %9, align 8, !tbaa !29
  br label %10

10:                                               ; preds = %4, %6
  ret void
}